target datalayout = "e-m:e-p270:32:32-p271:32:32-p272:64:64-i64:64-i128:128-f80:128-n8:16:32:64-S128"
target triple = "x86_64-pc-linux-gnu"

; Function Attrs: nounwind uwtable
define internal i32 @index_serial_cmp(ptr noundef %0, ptr noundef %1) #0 {
  %3 = alloca ptr, align 8
  %4 = alloca ptr, align 8
  %5 = alloca ptr, align 8
  %6 = alloca ptr, align 8
  store ptr %0, ptr %3, align 8, !tbaa !24
  store ptr %1, ptr %4, align 8, !tbaa !24
  call void @llvm.lifetime.start.p0(i64 8, ptr %5) #12
  call void @llvm.lifetime.start.p0(i64 8, ptr %6) #12
  %7 = load ptr, ptr %3, align 8, !tbaa !24
  %8 = getelementptr inbounds ptr, ptr %7, i64 3
  %9 = load ptr, ptr %8, align 8, !tbaa !9
  store ptr %9, ptr %5, align 8, !tbaa !9
  br label %10

10:                                               ; preds = %16, %2
  %11 = load ptr, ptr %5, align 8, !tbaa !9
  %12 = load i8, ptr %11, align 1, !tbaa !11
  %13 = sext i8 %12 to i32
  %14 = icmp eq i32 %13, 48
  br i1 %14, label %15, label %19

15:                                               ; preds = %10
  br label %16

16:                                               ; preds = %15
  %17 = load ptr, ptr %5, align 8, !tbaa !9
  %18 = getelementptr inbounds nuw i8, ptr %17, i32 1
  store ptr %18, ptr %5, align 8, !tbaa !9
  br label %10, !llvm.loop !203

19:                                               ; preds = %10
  %20 = load ptr, ptr %4, align 8, !tbaa !24
  %21 = getelementptr inbounds ptr, ptr %20, i64 3
  %22 = load ptr, ptr %21, align 8, !tbaa !9
  store ptr %22, ptr %6, align 8, !tbaa !9
  br label %23

23:                                               ; preds = %29, %19
  %24 = load ptr, ptr %6, align 8, !tbaa !9
  %25 = load i8, ptr %24, align 1, !tbaa !11
  %26 = sext i8 %25 to i32
  %27 = icmp eq i32 %26, 48
  br i1 %27, label %28, label %32

28:                                               ; preds = %23
  br label %29

29:                                               ; preds = %28
  %30 = load ptr, ptr %6, align 8, !tbaa !9
  %31 = getelementptr inbounds nuw i8, ptr %30, i32 1
  store ptr %31, ptr %6, align 8, !tbaa !9
  br label %23, !llvm.loop !204

32:                                               ; preds = %23
  %33 = load ptr, ptr %5, align 8, !tbaa !9
  %34 = load ptr, ptr %6, align 8, !tbaa !9
  %35 = call i32 @strcmp(ptr noundef %33, ptr noundef %34) #14
  call void @llvm.lifetime.end.p0(i64 8, ptr %6) #12
  call void @llvm.lifetime.end.p0(i64 8, ptr %5) #12
  ret i32 %35
}

; Function Attrs: nounwind uwtable
define internal i32 @index_serial_LHASH_COMP(ptr noundef %0, ptr noundef %1) #0 {
  %3 = alloca ptr, align 8
  %4 = alloca ptr, align 8
  %5 = alloca ptr, align 8
  %6 = alloca ptr, align 8
  store ptr %0, ptr %3, align 8, !tbaa !30
  store ptr %1, ptr %4, align 8, !tbaa !30
  call void @llvm.lifetime.start.p0(i64 8, ptr %5) #12
  %7 = load ptr, ptr %3, align 8, !tbaa !30
  store ptr %7, ptr %5, align 8, !tbaa !24
  call void @llvm.lifetime.start.p0(i64 8, ptr %6) #12
  %8 = load ptr, ptr %4, align 8, !tbaa !30
  store ptr %8, ptr %6, align 8, !tbaa !24
  %9 = load ptr, ptr %5, align 8, !tbaa !24
  %10 = load ptr, ptr %6, align 8, !tbaa !24
  %11 = call i32 @index_serial_cmp(ptr noundef %9, ptr noundef %10)
  call void @llvm.lifetime.end.p0(i64 8, ptr %6) #12
  call void @llvm.lifetime.end.p0(i64 8, ptr %5) #12
  ret i32 %11
}