; Function Attrs: nofree nounwind memory(read, inaccessiblemem: none) uwtable
define internal i32 @index_serial_LHASH_COMP(ptr noundef readonly captures(none) %0, ptr noundef readonly captures(none) %1) #17 {
  %3 = getelementptr i8, ptr %0, i64 24
  %.val = load ptr, ptr %3, align 8, !tbaa !20
  br label %4

4:                                                ; preds = %4, %2
  %.08.i = phi ptr [ %.val, %2 ], [ %7, %4 ]
  %5 = load i8, ptr %.08.i, align 1, !tbaa !13
  %6 = icmp eq i8 %5, 48
  %7 = getelementptr inbounds nuw i8, ptr %.08.i, i64 1
  br i1 %6, label %4, label %8, !llvm.loop !85

8:                                                ; preds = %4
  %9 = getelementptr inbounds nuw i8, ptr %1, i64 24
  %10 = load ptr, ptr %9, align 8, !tbaa !20
  br label %11

11:                                               ; preds = %11, %8
  %.0.i = phi ptr [ %10, %8 ], [ %14, %11 ]
  %12 = load i8, ptr %.0.i, align 1, !tbaa !13
  %13 = icmp eq i8 %12, 48
  %14 = getelementptr inbounds nuw i8, ptr %.0.i, i64 1
  br i1 %13, label %11, label %index_serial_cmp.exit, !llvm.loop !86

index_serial_cmp.exit:                            ; preds = %11
  %15 = tail call i32 @strcmp(ptr noundef nonnull dereferenceable(1) %.08.i, ptr noundef nonnull dereferenceable(1) %.0.i) #29
  ret i32 %15
}